Certificate:
    Data:
        Version: 3 (0x2)
        Serial Number: 1 (0x1)
    Signature Algorithm: sha256WithRSAEncryption
        Issuer: C=GR, ST=Athens, L=Pireus, O=Unipi, OU=mpsp, CN=Unipi CA/name=EasyRSA/emailAddress=panospet@gmail.com
        Validity
            Not Before: Jan 31 18:08:19 2016 GMT
            Not After : Jan 28 18:08:19 2026 GMT
        Subject: C=GR, ST=Athens, L=Pireus, O=Unipi, OU=mpsp, CN=admin/name=EasyRSA/emailAddress=panospet@gmail.com
        Subject Public Key Info:
            Public Key Algorithm: rsaEncryption
                Public-Key: (2048 bit)
                Modulus:
                    00:c5:ae:a1:0b:57:d9:db:d3:7e:5d:c0:b6:ca:59:
                    52:20:c2:fc:92:fc:7a:e1:93:5c:f3:52:79:09:cc:
                    23:91:23:e1:31:06:e1:3d:0a:6d:1d:3b:0d:ab:2d:
                    70:1e:bf:64:68:bb:2e:0a:6d:3d:7e:ed:05:51:58:
                    45:16:96:9f:bc:fc:23:cd:54:94:1f:08:87:d4:89:
                    4e:35:0b:76:14:be:b0:e6:03:38:5d:c3:b5:ed:93:
                    8c:64:0d:00:61:bb:69:90:2e:4d:18:f5:f1:c8:1d:
                    93:94:02:ac:69:a4:4e:e0:51:d8:6d:4a:66:dc:0f:
                    8c:57:54:7a:0c:1b:e1:35:f1:ee:c9:b0:47:7c:5d:
                    07:45:33:40:ed:26:a5:01:a2:37:a1:0d:ca:c0:b5:
                    86:2e:bc:b8:8c:23:93:82:f0:c8:d2:fd:a2:5e:61:
                    c2:fc:fb:a4:75:2f:de:e9:d5:31:94:44:95:ba:e8:
                    24:3e:5c:2a:e5:c0:93:0f:ea:10:83:72:c7:34:2a:
                    82:fe:3e:2d:4f:14:1f:f2:c4:af:30:b6:bd:07:b9:
                    18:ae:da:7b:fd:97:13:27:15:f1:ee:94:8c:2c:92:
                    e8:3f:eb:d2:d5:00:ae:6e:a7:70:6a:9b:43:28:09:
                    4b:73:e6:d9:4b:9c:59:5e:67:a9:65:6c:b4:a7:ed:
                    da:eb
                Exponent: 65537 (0x10001)
        X509v3 extensions:
            X509v3 Basic Constraints: 
                CA:FALSE
            Netscape Comment: 
                Easy-RSA Generated Certificate
            X509v3 Subject Key Identifier: 
                8D:40:53:AA:41:6A:B0:CE:B0:FE:C2:CE:7C:19:84:36:8A:82:85:8D
            X509v3 Authority Key Identifier: 
                keyid:AF:60:BA:E6:96:50:88:AA:64:3E:2B:E3:F2:B1:28:DA:CC:91:FF:B5
                DirName:/C=GR/ST=Athens/L=Pireus/O=Unipi/OU=mpsp/CN=Unipi CA/name=EasyRSA/emailAddress=panospet@gmail.com
                serial:AB:C1:91:6F:AA:39:AA:4E

            X509v3 Extended Key Usage: 
                TLS Web Client Authentication
            X509v3 Key Usage: 
                Digital Signature
            X509v3 Subject Alternative Name: 
                DNS:admin
    Signature Algorithm: sha256WithRSAEncryption
         26:9b:4d:9a:35:8c:90:30:a5:ab:48:bb:84:ff:f9:58:16:27:
         bb:b8:cd:39:e8:2c:e5:7b:45:0d:59:38:5d:0e:44:59:49:0c:
         f2:cb:06:b5:32:e9:e8:fe:00:d6:26:d3:04:10:f0:17:12:71:
         b2:9e:81:77:89:66:ae:88:25:9f:07:86:6f:63:b6:68:3c:9c:
         2e:c3:f3:02:a4:5f:1b:34:86:2b:0c:a1:6b:38:a7:49:79:3b:
         7a:8c:ab:bb:97:c1:30:1b:91:83:88:4f:b9:8c:f6:9f:75:61:
         41:10:0f:cf:82:1d:b5:76:68:b4:10:72:98:a5:64:f4:80:68:
         6f:35:22:16:38:0c:25:29:1a:cf:c1:0c:6d:61:23:df:33:b8:
         6a:c1:c1:60:5e:d5:52:0f:92:13:3d:a8:25:30:c2:27:4e:c8:
         90:c0:eb:d5:50:4a:a5:7a:00:dc:e1:63:ef:e8:07:ec:40:fb:
         de:65:9a:41:17:23:1e:b2:cf:01:48:44:33:18:da:4f:68:84:
         de:a4:2c:c7:97:8c:25:57:d5:ac:f4:86:d2:75:e5:fa:76:b5:
         a4:a9:03:34:a4:ba:55:02:62:ed:d9:91:fa:f1:e2:e8:74:c4:
         22:08:0e:23:8b:8a:da:3a:0f:3e:84:85:67:c0:db:7a:e6:1a:
         f5:e3:9c:6f
-----BEGIN CERTIFICATE-----
MIIFBzCCA++gAwIBAgIBATANBgkqhkiG9w0BAQsFADCBljELMAkGA1UEBhMCR1Ix
DzANBgNVBAgTBkF0aGVuczEPMA0GA1UEBxMGUGlyZXVzMQ4wDAYDVQQKEwVVbmlw
aTENMAsGA1UECxMEbXBzcDERMA8GA1UEAxMIVW5pcGkgQ0ExEDAOBgNVBCkTB0Vh
c3lSU0ExITAfBgkqhkiG9w0BCQEWEnBhbm9zcGV0QGdtYWlsLmNvbTAeFw0xNjAx
MzExODA4MTlaFw0yNjAxMjgxODA4MTlaMIGTMQswCQYDVQQGEwJHUjEPMA0GA1UE
CBMGQXRoZW5zMQ8wDQYDVQQHEwZQaXJldXMxDjAMBgNVBAoTBVVuaXBpMQ0wCwYD
VQQLEwRtcHNwMQ4wDAYDVQQDEwVhZG1pbjEQMA4GA1UEKRMHRWFzeVJTQTEhMB8G
CSqGSIb3DQEJARYScGFub3NwZXRAZ21haWwuY29tMIIBIjANBgkqhkiG9w0BAQEF
AAOCAQ8AMIIBCgKCAQEAxa6hC1fZ29N+XcC2yllSIML8kvx64ZNc81J5CcwjkSPh
MQbhPQptHTsNqy1wHr9kaLsuCm09fu0FUVhFFpafvPwjzVSUHwiH1IlONQt2FL6w
5gM4XcO17ZOMZA0AYbtpkC5NGPXxyB2TlAKsaaRO4FHYbUpm3A+MV1R6DBvhNfHu
ybBHfF0HRTNA7SalAaI3oQ3KwLWGLry4jCOTgvDI0v2iXmHC/PukdS/e6dUxlESV
uugkPlwq5cCTD+oQg3LHNCqC/j4tTxQf8sSvMLa9B7kYrtp7/ZcTJxXx7pSMLJLo
P+vS1QCubqdwaptDKAlLc+bZS5xZXmepZWy0p+3a6wIDAQABo4IBXzCCAVswCQYD
VR0TBAIwADAtBglghkgBhvhCAQ0EIBYeRWFzeS1SU0EgR2VuZXJhdGVkIENlcnRp
ZmljYXRlMB0GA1UdDgQWBBSNQFOqQWqwzrD+ws58GYQ2ioKFjTCBywYDVR0jBIHD
MIHAgBSvYLrmllCIqmQ+K+PysSjazJH/taGBnKSBmTCBljELMAkGA1UEBhMCR1Ix
DzANBgNVBAgTBkF0aGVuczEPMA0GA1UEBxMGUGlyZXVzMQ4wDAYDVQQKEwVVbmlw
aTENMAsGA1UECxMEbXBzcDERMA8GA1UEAxMIVW5pcGkgQ0ExEDAOBgNVBCkTB0Vh
c3lSU0ExITAfBgkqhkiG9w0BCQEWEnBhbm9zcGV0QGdtYWlsLmNvbYIJAKvBkW+q
OapOMBMGA1UdJQQMMAoGCCsGAQUFBwMCMAsGA1UdDwQEAwIHgDAQBgNVHREECTAH
ggVhZG1pbjANBgkqhkiG9w0BAQsFAAOCAQEAJptNmjWMkDClq0i7hP/5WBYnu7jN
Oegs5XtFDVk4XQ5EWUkM8ssGtTLp6P4A1ibTBBDwFxJxsp6Bd4lmroglnweGb2O2
aDycLsPzAqRfGzSGKwyhazinSXk7eoyru5fBMBuRg4hPuYz2n3VhQRAPz4IdtXZo
tBBymKVk9IBobzUiFjgMJSkaz8EMbWEj3zO4asHBYF7VUg+SEz2oJTDCJ07IkMDr
1VBKpXoA3OFj7+gH7ED73mWaQRcjHrLPAUhEMxjaT2iE3qQsx5eMJVfVrPSG0nXl
+na1pKkDNKS6VQJi7dmR+vHi6HTEIggOI4uK2joPPoSFZ8DbeuYa9eOcbw==
-----END CERTIFICATE-----
